; Function Attrs: mustprogress uwtable
define noundef i32 @_Z10xdr_u_charP3XDRPh(ptr noundef %0, ptr nocapture noundef %1) local_unnamed_addr #0 {
  %3 = alloca i32, align 4
  %4 = load i8, ptr %1, align 1
  call void @llvm.lifetime.start.p0(i64 4, ptr nonnull %3)
  %5 = load i32, ptr %0, align 8
  switch i32 %5, label %_Z9xdr_u_intP3XDRPj.exit.thread [
    i32 0, label %_Z9xdr_u_intP3XDRPj.exit
    i32 1, label %6
    i32 2, label %_Z9xdr_u_intP3XDRPj.exit.thread9
  ]

6:                                                ; preds = %2
  %7 = getelementptr inbounds i8, ptr %0, i64 8
  %8 = load ptr, ptr %7, align 8
  %9 = getelementptr inbounds i8, ptr %8, i64 64
  %10 = load ptr, ptr %9, align 8
  %11 = call noundef i32 %10(ptr noundef nonnull %0, ptr noundef nonnull %3)
  %.not.i = icmp eq i32 %11, 0
  br i1 %.not.i, label %_Z9xdr_u_intP3XDRPj.exit.thread, label %12

12:                                               ; preds = %6
  %13 = load i32, ptr %3, align 4
  %14 = trunc i32 %13 to i8
  br label %_Z9xdr_u_intP3XDRPj.exit.thread9

_Z9xdr_u_intP3XDRPj.exit.thread:                  ; preds = %6, %2
  call void @llvm.lifetime.end.p0(i64 4, ptr nonnull %3)
  br label %22

_Z9xdr_u_intP3XDRPj.exit.thread9:                 ; preds = %12, %2
  %.04.ph = phi i8 [ %14, %12 ], [ %4, %2 ]
  call void @llvm.lifetime.end.p0(i64 4, ptr nonnull %3)
  br label %21

_Z9xdr_u_intP3XDRPj.exit:                         ; preds = %2
  %15 = zext i8 %4 to i32
  store i32 %15, ptr %3, align 4
  %16 = getelementptr inbounds i8, ptr %0, i64 8
  %17 = load ptr, ptr %16, align 8
  %18 = getelementptr inbounds i8, ptr %17, i64 72
  %19 = load ptr, ptr %18, align 8
  %20 = call noundef i32 %19(ptr noundef nonnull %0, ptr noundef nonnull %3)
  call void @llvm.lifetime.end.p0(i64 4, ptr nonnull %3)
  %.not = icmp eq i32 %20, 0
  br i1 %.not, label %22, label %21

21:                                               ; preds = %_Z9xdr_u_intP3XDRPj.exit.thread9, %_Z9xdr_u_intP3XDRPj.exit
  %.0413 = phi i8 [ %.04.ph, %_Z9xdr_u_intP3XDRPj.exit.thread9 ], [ %4, %_Z9xdr_u_intP3XDRPj.exit ]
  store i8 %.0413, ptr %1, align 1
  br label %22

22:                                               ; preds = %_Z9xdr_u_intP3XDRPj.exit.thread, %_Z9xdr_u_intP3XDRPj.exit, %21
  %.0 = phi i32 [ 1, %21 ], [ 0, %_Z9xdr_u_intP3XDRPj.exit ], [ 0, %_Z9xdr_u_intP3XDRPj.exit.thread ]
  ret i32 %.0
}